target datalayout = "e-m:e-p270:32:32-p271:32:32-p272:64:64-i64:64-i128:128-f80:128-n8:16:32:64-S128"
target triple = "x86_64-pc-linux-gnu"

%struct.DdManager = type { %struct.DdNode, ptr, ptr, ptr, ptr, ptr, ptr, ptr, i32, i32, double, double, double, i32, i32, i32, i32, i32, i32, ptr, ptr, %struct.DdSubtable, i32, i32, i32, i32, i32, i32, i32, double, i32, i32, i32, ptr, i64, double, i32, ptr, ptr, ptr, ptr, ptr, ptr, ptr, i32, ptr, ptr, ptr, ptr, ptr, ptr, i32, i32, i32, double, i32, i32, i32, i32, double, double, i32, i32, i32, i32, i32, i32, i32, i32, i32, ptr, ptr, i32, i32, i32, i32, i32, i32, ptr, ptr, ptr, ptr, ptr, ptr, ptr, ptr, i32, i64, i64, i64, i32, i64, i64, double, double, double, double, double, double, i32, ptr, ptr, i64 }
%struct.DdNode = type { i32, i32, ptr, %union.anon, i64 }
%union.anon = type { %struct.DdChildren }
%struct.DdChildren = type { ptr, ptr }
%struct.DdSubtable = type { ptr, i32, i32, i32, i32, i32, i32, i32, i32, i32, i32, i32 }

; Function Attrs: nounwind uwtable
define internal ptr @cuddBddVectorComposeRecur(ptr noundef %0, ptr noundef %1, ptr noundef %2, ptr noundef %3, i32 noundef %4) #0 {
  %6 = alloca ptr, align 8
  %7 = alloca ptr, align 8
  %8 = alloca ptr, align 8
  %9 = alloca ptr, align 8
  %10 = alloca ptr, align 8
  %11 = alloca i32, align 4
  %12 = alloca ptr, align 8
  %13 = alloca ptr, align 8
  %14 = alloca ptr, align 8
  %15 = alloca ptr, align 8
  %16 = alloca i32, align 4
  %17 = alloca i64, align 8
  store ptr %0, ptr %7, align 8, !tbaa !3
  store ptr %1, ptr %8, align 8, !tbaa !38
  store ptr %2, ptr %9, align 8, !tbaa !8
  store ptr %3, ptr %10, align 8, !tbaa !44
  store i32 %4, ptr %11, align 4, !tbaa !10
  call void @llvm.lifetime.start.p0(i64 8, ptr %12) #6
  call void @llvm.lifetime.start.p0(i64 8, ptr %13) #6
  call void @llvm.lifetime.start.p0(i64 8, ptr %14) #6
  call void @llvm.lifetime.start.p0(i64 8, ptr %15) #6
  %18 = load ptr, ptr %9, align 8, !tbaa !8
  %19 = ptrtoint ptr %18 to i64
  %20 = and i64 %19, -2
  %21 = inttoptr i64 %20 to ptr
  store ptr %21, ptr %12, align 8, !tbaa !8
  %22 = load ptr, ptr %12, align 8, !tbaa !8
  %23 = getelementptr inbounds nuw %struct.DdNode, ptr %22, i32 0, i32 0
  %24 = load i32, ptr %23, align 8, !tbaa !33
  %25 = icmp eq i32 %24, 2147483647
  br i1 %25, label %26, label %30

26:                                               ; preds = %5
  %27 = load ptr, ptr %12, align 8, !tbaa !8
  %28 = getelementptr inbounds nuw %struct.DdNode, ptr %27, i32 0, i32 0
  %29 = load i32, ptr %28, align 8, !tbaa !33
  br label %40

30:                                               ; preds = %5
  %31 = load ptr, ptr %7, align 8, !tbaa !3
  %32 = getelementptr inbounds nuw %struct.DdManager, ptr %31, i32 0, i32 37
  %33 = load ptr, ptr %32, align 8, !tbaa !32
  %34 = load ptr, ptr %12, align 8, !tbaa !8
  %35 = getelementptr inbounds nuw %struct.DdNode, ptr %34, i32 0, i32 0
  %36 = load i32, ptr %35, align 8, !tbaa !33
  %37 = zext i32 %36 to i64
  %38 = getelementptr inbounds nuw i32, ptr %33, i64 %37
  %39 = load i32, ptr %38, align 4, !tbaa !10
  br label %40

40:                                               ; preds = %30, %26
  %41 = phi i32 [ %29, %26 ], [ %39, %30 ]
  %42 = load i32, ptr %11, align 4, !tbaa !10
  %43 = icmp sgt i32 %41, %42
  br i1 %43, label %44, label %46

44:                                               ; preds = %40
  %45 = load ptr, ptr %9, align 8, !tbaa !8
  store ptr %45, ptr %6, align 8
  store i32 1, ptr %16, align 4
  br label %175

46:                                               ; preds = %40
  %47 = load ptr, ptr %8, align 8, !tbaa !38
  %48 = load ptr, ptr %12, align 8, !tbaa !8
  %49 = call ptr @cuddHashTableLookup1(ptr noundef %47, ptr noundef %48)
  store ptr %49, ptr %15, align 8, !tbaa !8
  %50 = icmp ne ptr %49, null
  br i1 %50, label %51, label %61

51:                                               ; preds = %46
  %52 = load ptr, ptr %15, align 8, !tbaa !8
  %53 = ptrtoint ptr %52 to i64
  %54 = load ptr, ptr %12, align 8, !tbaa !8
  %55 = load ptr, ptr %9, align 8, !tbaa !8
  %56 = icmp ne ptr %54, %55
  %57 = zext i1 %56 to i32
  %58 = sext i32 %57 to i64
  %59 = xor i64 %53, %58
  %60 = inttoptr i64 %59 to ptr
  store ptr %60, ptr %6, align 8
  store i32 1, ptr %16, align 4
  br label %175

61:                                               ; preds = %46
  %62 = load ptr, ptr %7, align 8, !tbaa !3
  %63 = load ptr, ptr %8, align 8, !tbaa !38
  %64 = load ptr, ptr %12, align 8, !tbaa !8
  %65 = getelementptr inbounds nuw %struct.DdNode, ptr %64, i32 0, i32 3
  %66 = getelementptr inbounds nuw %struct.DdChildren, ptr %65, i32 0, i32 0
  %67 = load ptr, ptr %66, align 8, !tbaa !34
  %68 = load ptr, ptr %10, align 8, !tbaa !44
  %69 = load i32, ptr %11, align 4, !tbaa !10
  %70 = call ptr @cuddBddVectorComposeRecur(ptr noundef %62, ptr noundef %63, ptr noundef %67, ptr noundef %68, i32 noundef %69)
  store ptr %70, ptr %13, align 8, !tbaa !8
  %71 = load ptr, ptr %13, align 8, !tbaa !8
  %72 = icmp eq ptr %71, null
  br i1 %72, label %73, label %74

73:                                               ; preds = %61
  store ptr null, ptr %6, align 8
  store i32 1, ptr %16, align 4
  br label %175

74:                                               ; preds = %61
  %75 = load ptr, ptr %13, align 8, !tbaa !8
  %76 = ptrtoint ptr %75 to i64
  %77 = and i64 %76, -2
  %78 = inttoptr i64 %77 to ptr
  %79 = getelementptr inbounds nuw %struct.DdNode, ptr %78, i32 0, i32 1
  %80 = load i32, ptr %79, align 4, !tbaa !35
  %81 = add i32 %80, 1
  store i32 %81, ptr %79, align 4, !tbaa !35
  %82 = load ptr, ptr %7, align 8, !tbaa !3
  %83 = load ptr, ptr %8, align 8, !tbaa !38
  %84 = load ptr, ptr %12, align 8, !tbaa !8
  %85 = getelementptr inbounds nuw %struct.DdNode, ptr %84, i32 0, i32 3
  %86 = getelementptr inbounds nuw %struct.DdChildren, ptr %85, i32 0, i32 1
  %87 = load ptr, ptr %86, align 8, !tbaa !34
  %88 = load ptr, ptr %10, align 8, !tbaa !44
  %89 = load i32, ptr %11, align 4, !tbaa !10
  %90 = call ptr @cuddBddVectorComposeRecur(ptr noundef %82, ptr noundef %83, ptr noundef %87, ptr noundef %88, i32 noundef %89)
  store ptr %90, ptr %14, align 8, !tbaa !8
  %91 = load ptr, ptr %14, align 8, !tbaa !8
  %92 = icmp eq ptr %91, null
  br i1 %92, label %93, label %96

93:                                               ; preds = %74
  %94 = load ptr, ptr %7, align 8, !tbaa !3
  %95 = load ptr, ptr %13, align 8, !tbaa !8
  call void @Cudd_IterDerefBdd(ptr noundef %94, ptr noundef %95)
  store ptr null, ptr %6, align 8
  store i32 1, ptr %16, align 4
  br label %175

96:                                               ; preds = %74
  %97 = load ptr, ptr %14, align 8, !tbaa !8
  %98 = ptrtoint ptr %97 to i64
  %99 = and i64 %98, -2
  %100 = inttoptr i64 %99 to ptr
  %101 = getelementptr inbounds nuw %struct.DdNode, ptr %100, i32 0, i32 1
  %102 = load i32, ptr %101, align 4, !tbaa !35
  %103 = add i32 %102, 1
  store i32 %103, ptr %101, align 4, !tbaa !35
  %104 = load ptr, ptr %7, align 8, !tbaa !3
  %105 = load ptr, ptr %10, align 8, !tbaa !44
  %106 = load ptr, ptr %12, align 8, !tbaa !8
  %107 = getelementptr inbounds nuw %struct.DdNode, ptr %106, i32 0, i32 0
  %108 = load i32, ptr %107, align 8, !tbaa !33
  %109 = zext i32 %108 to i64
  %110 = getelementptr inbounds nuw ptr, ptr %105, i64 %109
  %111 = load ptr, ptr %110, align 8, !tbaa !8
  %112 = load ptr, ptr %13, align 8, !tbaa !8
  %113 = load ptr, ptr %14, align 8, !tbaa !8
  %114 = call ptr @cuddBddIteRecur(ptr noundef %104, ptr noundef %111, ptr noundef %112, ptr noundef %113)
  store ptr %114, ptr %15, align 8, !tbaa !8
  %115 = load ptr, ptr %15, align 8, !tbaa !8
  %116 = icmp eq ptr %115, null
  br i1 %116, label %117, label %122

117:                                              ; preds = %96
  %118 = load ptr, ptr %7, align 8, !tbaa !3
  %119 = load ptr, ptr %13, align 8, !tbaa !8
  call void @Cudd_IterDerefBdd(ptr noundef %118, ptr noundef %119)
  %120 = load ptr, ptr %7, align 8, !tbaa !3
  %121 = load ptr, ptr %14, align 8, !tbaa !8
  call void @Cudd_IterDerefBdd(ptr noundef %120, ptr noundef %121)
  store ptr null, ptr %6, align 8
  store i32 1, ptr %16, align 4
  br label %175

122:                                              ; preds = %96
  %123 = load ptr, ptr %15, align 8, !tbaa !8
  %124 = ptrtoint ptr %123 to i64
  %125 = and i64 %124, -2
  %126 = inttoptr i64 %125 to ptr
  %127 = getelementptr inbounds nuw %struct.DdNode, ptr %126, i32 0, i32 1
  %128 = load i32, ptr %127, align 4, !tbaa !35
  %129 = add i32 %128, 1
  store i32 %129, ptr %127, align 4, !tbaa !35
  %130 = load ptr, ptr %7, align 8, !tbaa !3
  %131 = load ptr, ptr %13, align 8, !tbaa !8
  call void @Cudd_IterDerefBdd(ptr noundef %130, ptr noundef %131)
  %132 = load ptr, ptr %7, align 8, !tbaa !3
  %133 = load ptr, ptr %14, align 8, !tbaa !8
  call void @Cudd_IterDerefBdd(ptr noundef %132, ptr noundef %133)
  %134 = load ptr, ptr %12, align 8, !tbaa !8
  %135 = getelementptr inbounds nuw %struct.DdNode, ptr %134, i32 0, i32 1
  %136 = load i32, ptr %135, align 4, !tbaa !35
  %137 = icmp ne i32 %136, 1
  br i1 %137, label %138, label %158

138:                                              ; preds = %122
  call void @llvm.lifetime.start.p0(i64 8, ptr %17) #6
  %139 = load ptr, ptr %12, align 8, !tbaa !8
  %140 = getelementptr inbounds nuw %struct.DdNode, ptr %139, i32 0, i32 1
  %141 = load i32, ptr %140, align 4, !tbaa !35
  %142 = zext i32 %141 to i64
  store i64 %142, ptr %17, align 8, !tbaa !43
  %143 = load i64, ptr %17, align 8, !tbaa !43
  %144 = add nsw i64 %143, -1
  store i64 %144, ptr %17, align 8, !tbaa !43
  %145 = load ptr, ptr %8, align 8, !tbaa !38
  %146 = load ptr, ptr %12, align 8, !tbaa !8
  %147 = load ptr, ptr %15, align 8, !tbaa !8
  %148 = load i64, ptr %17, align 8, !tbaa !43
  %149 = call i32 @cuddHashTableInsert1(ptr noundef %145, ptr noundef %146, ptr noundef %147, i64 noundef %148)
  %150 = icmp ne i32 %149, 0
  br i1 %150, label %154, label %151

151:                                              ; preds = %138
  %152 = load ptr, ptr %7, align 8, !tbaa !3
  %153 = load ptr, ptr %15, align 8, !tbaa !8
  call void @Cudd_IterDerefBdd(ptr noundef %152, ptr noundef %153)
  store ptr null, ptr %6, align 8
  store i32 1, ptr %16, align 4
  br label %155

154:                                              ; preds = %138
  store i32 0, ptr %16, align 4
  br label %155

155:                                              ; preds = %154, %151
  call void @llvm.lifetime.end.p0(i64 8, ptr %17) #6
  %156 = load i32, ptr %16, align 4
  switch i32 %156, label %175 [
    i32 0, label %157
  ]

157:                                              ; preds = %155
  br label %158

158:                                              ; preds = %157, %122
  %159 = load ptr, ptr %15, align 8, !tbaa !8
  %160 = ptrtoint ptr %159 to i64
  %161 = and i64 %160, -2
  %162 = inttoptr i64 %161 to ptr
  %163 = getelementptr inbounds nuw %struct.DdNode, ptr %162, i32 0, i32 1
  %164 = load i32, ptr %163, align 4, !tbaa !35
  %165 = add i32 %164, -1
  store i32 %165, ptr %163, align 4, !tbaa !35
  %166 = load ptr, ptr %15, align 8, !tbaa !8
  %167 = ptrtoint ptr %166 to i64
  %168 = load ptr, ptr %12, align 8, !tbaa !8
  %169 = load ptr, ptr %9, align 8, !tbaa !8
  %170 = icmp ne ptr %168, %169
  %171 = zext i1 %170 to i32
  %172 = sext i32 %171 to i64
  %173 = xor i64 %167, %172
  %174 = inttoptr i64 %173 to ptr
  store ptr %174, ptr %6, align 8
  store i32 1, ptr %16, align 4
  br label %175

175:                                              ; preds = %158, %155, %117, %93, %73, %51, %44
  call void @llvm.lifetime.end.p0(i64 8, ptr %15) #6
  call void @llvm.lifetime.end.p0(i64 8, ptr %14) #6
  call void @llvm.lifetime.end.p0(i64 8, ptr %13) #6
  call void @llvm.lifetime.end.p0(i64 8, ptr %12) #6
  %176 = load ptr, ptr %6, align 8
  ret ptr %176
}