; Function Attrs: nounwind uwtable
define internal fastcc ptr @cuddBddVectorComposeRecur(ptr noundef %0, ptr noundef nonnull %1, ptr noundef %2, ptr noundef %3, i32 noundef range(i32 -2147483648, 2147483647) %4) unnamed_addr #0 {
  %6 = ptrtoint ptr %2 to i64
  %7 = and i64 %6, -2
  %8 = inttoptr i64 %7 to ptr
  %9 = load i32, ptr %8, align 8, !tbaa !30
  %10 = icmp eq i32 %9, 2147483647
  br i1 %10, label %.thread, label %11

11:                                               ; preds = %5
  %12 = getelementptr inbounds nuw i8, ptr %0, i64 312
  %13 = load ptr, ptr %12, align 8, !tbaa !29
  %14 = zext i32 %9 to i64
  %15 = getelementptr inbounds nuw i32, ptr %13, i64 %14
  %16 = load i32, ptr %15, align 4, !tbaa !31
  %17 = icmp sgt i32 %16, %4
  br i1 %17, label %.thread, label %18

18:                                               ; preds = %11
  %19 = tail call ptr @cuddHashTableLookup1(ptr noundef nonnull %1, ptr noundef nonnull %8) #7
  %.not = icmp eq ptr %19, null
  br i1 %.not, label %26, label %20

20:                                               ; preds = %18
  %21 = ptrtoint ptr %19 to i64
  %22 = icmp ne ptr %2, %8
  %23 = zext i1 %22 to i64
  %24 = xor i64 %21, %23
  %25 = inttoptr i64 %24 to ptr
  br label %.thread

26:                                               ; preds = %18
  %27 = getelementptr inbounds nuw i8, ptr %8, i64 16
  %28 = load ptr, ptr %27, align 8, !tbaa !32
  %29 = tail call fastcc ptr @cuddBddVectorComposeRecur(ptr noundef nonnull %0, ptr noundef %1, ptr noundef %28, ptr noundef %3, i32 noundef %4)
  %30 = icmp eq ptr %29, null
  br i1 %30, label %.thread, label %31

31:                                               ; preds = %26
  %32 = ptrtoint ptr %29 to i64
  %33 = and i64 %32, -2
  %34 = inttoptr i64 %33 to ptr
  %35 = getelementptr inbounds nuw i8, ptr %34, i64 4
  %36 = load i32, ptr %35, align 4, !tbaa !33
  %37 = add i32 %36, 1
  store i32 %37, ptr %35, align 4, !tbaa !33
  %38 = getelementptr inbounds nuw i8, ptr %8, i64 24
  %39 = load ptr, ptr %38, align 8, !tbaa !32
  %40 = tail call fastcc ptr @cuddBddVectorComposeRecur(ptr noundef nonnull %0, ptr noundef %1, ptr noundef %39, ptr noundef %3, i32 noundef %4)
  %41 = icmp eq ptr %40, null
  br i1 %41, label %42, label %43

42:                                               ; preds = %31
  tail call void @Cudd_IterDerefBdd(ptr noundef nonnull %0, ptr noundef nonnull %29) #7
  br label %.thread

43:                                               ; preds = %31
  %44 = ptrtoint ptr %40 to i64
  %45 = and i64 %44, -2
  %46 = inttoptr i64 %45 to ptr
  %47 = getelementptr inbounds nuw i8, ptr %46, i64 4
  %48 = load i32, ptr %47, align 4, !tbaa !33
  %49 = add i32 %48, 1
  store i32 %49, ptr %47, align 4, !tbaa !33
  %50 = load i32, ptr %8, align 8, !tbaa !30
  %51 = zext i32 %50 to i64
  %52 = getelementptr inbounds nuw ptr, ptr %3, i64 %51
  %53 = load ptr, ptr %52, align 8, !tbaa !25
  %54 = tail call ptr @cuddBddIteRecur(ptr noundef nonnull %0, ptr noundef %53, ptr noundef nonnull %29, ptr noundef nonnull %40) #7
  %55 = icmp eq ptr %54, null
  br i1 %55, label %56, label %57

56:                                               ; preds = %43
  tail call void @Cudd_IterDerefBdd(ptr noundef nonnull %0, ptr noundef nonnull %29) #7
  tail call void @Cudd_IterDerefBdd(ptr noundef nonnull %0, ptr noundef nonnull %40) #7
  br label %.thread

57:                                               ; preds = %43
  %58 = ptrtoint ptr %54 to i64
  %59 = and i64 %58, -2
  %60 = inttoptr i64 %59 to ptr
  %61 = getelementptr inbounds nuw i8, ptr %60, i64 4
  %62 = load i32, ptr %61, align 4, !tbaa !33
  %63 = add i32 %62, 1
  store i32 %63, ptr %61, align 4, !tbaa !33
  tail call void @Cudd_IterDerefBdd(ptr noundef nonnull %0, ptr noundef nonnull %29) #7
  tail call void @Cudd_IterDerefBdd(ptr noundef nonnull %0, ptr noundef nonnull %40) #7
  %64 = getelementptr inbounds nuw i8, ptr %8, i64 4
  %65 = load i32, ptr %64, align 4, !tbaa !33
  %.not65 = icmp eq i32 %65, 1
  br i1 %.not65, label %.critedge, label %66

66:                                               ; preds = %57
  %67 = zext i32 %65 to i64
  %68 = add nsw i64 %67, -1
  %69 = tail call i32 @cuddHashTableInsert1(ptr noundef nonnull %1, ptr noundef nonnull %8, ptr noundef nonnull %54, i64 noundef %68) #7
  %.not66.not = icmp eq i32 %69, 0
  br i1 %.not66.not, label %70, label %.critedge

70:                                               ; preds = %66
  tail call void @Cudd_IterDerefBdd(ptr noundef nonnull %0, ptr noundef nonnull %54) #7
  br label %.thread

.critedge:                                        ; preds = %66, %57
  %71 = load i32, ptr %61, align 4, !tbaa !33
  %72 = add i32 %71, -1
  store i32 %72, ptr %61, align 4, !tbaa !33
  %73 = icmp ne ptr %2, %8
  %74 = zext i1 %73 to i64
  %75 = xor i64 %58, %74
  %76 = inttoptr i64 %75 to ptr
  br label %.thread

.thread:                                          ; preds = %5, %70, %26, %11, %.critedge, %56, %42, %20
  %.0 = phi ptr [ %25, %20 ], [ null, %42 ], [ null, %56 ], [ %76, %.critedge ], [ null, %70 ], [ %2, %11 ], [ null, %26 ], [ %2, %5 ]
  ret ptr %.0
}